target datalayout = "e-m:e-p270:32:32-p271:32:32-p272:64:64-i64:64-i128:128-f80:128-n8:16:32:64-S128"
target triple = "x86_64-pc-linux-gnu"

%struct.tng_trajectory = type { ptr, ptr, i64, ptr, ptr, ptr, ptr, ptr, ptr, i8, i8, ptr, ptr, ptr, ptr, ptr, ptr, ptr, ptr, ptr, i64, i64, i8, i64, i64, i64, double, i64, ptr, ptr, i64, i64, i64, i64, i64, %struct.tng_trajectory_frame_set, i64, i64, i64, i32, ptr, i32, ptr, ptr, ptr, double }
%struct.tng_trajectory_frame_set = type { i64, ptr, i64, i64, i64, i64, ptr, i64, i64, i64, i64, i64, i64, i64, double, i32, ptr, i32, ptr }
%struct.tng_gen_block = type { i64, i64, i64, [16 x i8], ptr, i64, i64, i64, ptr, i64, i64, ptr, ptr, ptr }

@stderr = external global ptr, align 8
@.str = private unnamed_addr constant [45 x i8] c"TNG library: Cannot allocate memory. %s: %d\0A\00", align 1
@.str.1 = private unnamed_addr constant [130 x i8] c"generated/home/dtcxzyw/WorkSpace/Projects/compilers/llvm-opt-benchmark/bench/gromacs/gromacs/src/external/tng_io/src/lib/tng_io.c\00", align 1
@.str.14 = private unnamed_addr constant [58 x i8] c"TNG library: Cannot read block header at pos %ld. %s: %d\0A\00", align 1

; Function Attrs: nounwind uwtable
define internal i32 @tng_block_init(ptr noundef %0) #0 {
  %2 = alloca i32, align 4
  %3 = alloca ptr, align 8
  %4 = alloca ptr, align 8
  %5 = alloca i32, align 4
  store ptr %0, ptr %3, align 8, !tbaa !235
  call void @llvm.lifetime.start.p0(i64 8, ptr %4) #11
  %6 = call noalias ptr @malloc(i64 noundef 120) #13
  %7 = load ptr, ptr %3, align 8, !tbaa !235
  store ptr %6, ptr %7, align 8, !tbaa !221
  %8 = load ptr, ptr %3, align 8, !tbaa !235
  %9 = load ptr, ptr %8, align 8, !tbaa !221
  %10 = icmp ne ptr %9, null
  br i1 %10, label %14, label %11

11:                                               ; preds = %1
  %12 = load ptr, ptr @stderr, align 8, !tbaa !24
  %13 = call i32 (ptr, ptr, ...) @fprintf(ptr noundef %12, ptr noundef @.str, ptr noundef @.str.1, i32 noundef 940) #11
  store i32 2, ptr %2, align 4
  store i32 1, ptr %5, align 4
  br label %34

14:                                               ; preds = %1
  %15 = load ptr, ptr %3, align 8, !tbaa !235
  %16 = load ptr, ptr %15, align 8, !tbaa !221
  store ptr %16, ptr %4, align 8, !tbaa !221
  %17 = load ptr, ptr %4, align 8, !tbaa !221
  %18 = getelementptr inbounds nuw %struct.tng_gen_block, ptr %17, i32 0, i32 2
  store i64 -1, ptr %18, align 8, !tbaa !230
  %19 = load ptr, ptr %4, align 8, !tbaa !221
  %20 = getelementptr inbounds nuw %struct.tng_gen_block, ptr %19, i32 0, i32 3
  %21 = getelementptr inbounds [16 x i8], ptr %20, i64 0, i64 0
  call void @llvm.memset.p0.i64(ptr align 8 %21, i8 0, i64 16, i1 false)
  %22 = load ptr, ptr %4, align 8, !tbaa !221
  %23 = getelementptr inbounds nuw %struct.tng_gen_block, ptr %22, i32 0, i32 4
  store ptr null, ptr %23, align 8, !tbaa !237
  %24 = load ptr, ptr %4, align 8, !tbaa !221
  %25 = getelementptr inbounds nuw %struct.tng_gen_block, ptr %24, i32 0, i32 5
  store i64 8, ptr %25, align 8, !tbaa !238
  %26 = load ptr, ptr %4, align 8, !tbaa !221
  %27 = getelementptr inbounds nuw %struct.tng_gen_block, ptr %26, i32 0, i32 12
  store ptr null, ptr %27, align 8, !tbaa !239
  %28 = load ptr, ptr %4, align 8, !tbaa !221
  %29 = getelementptr inbounds nuw %struct.tng_gen_block, ptr %28, i32 0, i32 0
  store i64 0, ptr %29, align 8, !tbaa !223
  %30 = load ptr, ptr %4, align 8, !tbaa !221
  %31 = getelementptr inbounds nuw %struct.tng_gen_block, ptr %30, i32 0, i32 13
  store ptr null, ptr %31, align 8, !tbaa !240
  %32 = load ptr, ptr %4, align 8, !tbaa !221
  %33 = getelementptr inbounds nuw %struct.tng_gen_block, ptr %32, i32 0, i32 1
  store i64 0, ptr %33, align 8, !tbaa !241
  store i32 0, ptr %2, align 4
  store i32 1, ptr %5, align 4
  br label %34

34:                                               ; preds = %14, %11
  call void @llvm.lifetime.end.p0(i64 8, ptr %4) #11
  %35 = load i32, ptr %2, align 4
  ret i32 %35
}

; Function Attrs: nounwind uwtable
define i32 @tng_frame_set_read(ptr noundef %0, i8 noundef signext %1) #0 {
  %3 = alloca i32, align 4
  %4 = alloca ptr, align 8
  %5 = alloca i8, align 1
  %6 = alloca i64, align 8
  %7 = alloca ptr, align 8
  %8 = alloca i32, align 4
  %9 = alloca i32, align 4
  store ptr %0, ptr %4, align 8, !tbaa !3
  store i8 %1, ptr %5, align 1, !tbaa !23
  call void @llvm.lifetime.start.p0(i64 8, ptr %6) #11
  call void @llvm.lifetime.start.p0(i64 8, ptr %7) #11
  call void @llvm.lifetime.start.p0(i64 4, ptr %8) #11
  %10 = load ptr, ptr %4, align 8, !tbaa !3
  %11 = call i32 @tng_input_file_init(ptr noundef %10)
  %12 = icmp ne i32 %11, 0
  br i1 %12, label %13, label %14

13:                                               ; preds = %2
  store i32 2, ptr %3, align 4
  store i32 1, ptr %9, align 4
  br label %128

14:                                               ; preds = %2
  %15 = load ptr, ptr %4, align 8, !tbaa !3
  %16 = getelementptr inbounds nuw %struct.tng_trajectory, ptr %15, i32 0, i32 1
  %17 = load ptr, ptr %16, align 8, !tbaa !136
  %18 = call i64 @ftello64(ptr noundef %17)
  store i64 %18, ptr %6, align 8, !tbaa !26
  %19 = call i32 @tng_block_init(ptr noundef %7)
  %20 = load ptr, ptr %4, align 8, !tbaa !3
  %21 = load ptr, ptr %7, align 8, !tbaa !221
  %22 = call i32 @tng_block_header_read(ptr noundef %20, ptr noundef %21)
  store i32 %22, ptr %8, align 4, !tbaa !20
  %23 = load i32, ptr %8, align 4, !tbaa !20
  %24 = icmp eq i32 %23, 2
  br i1 %24, label %35, label %25

25:                                               ; preds = %14
  %26 = load ptr, ptr %7, align 8, !tbaa !221
  %27 = getelementptr inbounds nuw %struct.tng_gen_block, ptr %26, i32 0, i32 2
  %28 = load i64, ptr %27, align 8, !tbaa !230
  %29 = icmp ne i64 %28, 2
  br i1 %29, label %35, label %30

30:                                               ; preds = %25
  %31 = load ptr, ptr %7, align 8, !tbaa !221
  %32 = getelementptr inbounds nuw %struct.tng_gen_block, ptr %31, i32 0, i32 2
  %33 = load i64, ptr %32, align 8, !tbaa !230
  %34 = icmp eq i64 %33, -1
  br i1 %34, label %35, label %40

35:                                               ; preds = %30, %25, %14
  %36 = load ptr, ptr @stderr, align 8, !tbaa !24
  %37 = load i64, ptr %6, align 8, !tbaa !26
  %38 = call i32 (ptr, ptr, ...) @fprintf(ptr noundef %36, ptr noundef @.str.14, i64 noundef %37, ptr noundef @.str.1, i32 noundef 11138) #11
  %39 = call i32 @tng_block_destroy(ptr noundef %7)
  store i32 2, ptr %3, align 4
  store i32 1, ptr %9, align 4
  br label %128

40:                                               ; preds = %30
  %41 = load i64, ptr %6, align 8, !tbaa !26
  %42 = load ptr, ptr %4, align 8, !tbaa !3
  %43 = getelementptr inbounds nuw %struct.tng_trajectory, ptr %42, i32 0, i32 36
  store i64 %41, ptr %43, align 8, !tbaa !152
  %44 = load ptr, ptr %4, align 8, !tbaa !3
  %45 = load ptr, ptr %7, align 8, !tbaa !221
  %46 = load i8, ptr %5, align 1, !tbaa !23
  %47 = call i32 @tng_block_read_next(ptr noundef %44, ptr noundef %45, i8 noundef signext %46)
  %48 = icmp eq i32 %47, 0
  br i1 %48, label %49, label %126

49:                                               ; preds = %40
  %50 = load ptr, ptr %4, align 8, !tbaa !3
  %51 = getelementptr inbounds nuw %struct.tng_trajectory, ptr %50, i32 0, i32 38
  %52 = load i64, ptr %51, align 8, !tbaa !157
  %53 = add nsw i64 %52, 1
  store i64 %53, ptr %51, align 8, !tbaa !157
  %54 = load ptr, ptr %4, align 8, !tbaa !3
  %55 = getelementptr inbounds nuw %struct.tng_trajectory, ptr %54, i32 0, i32 1
  %56 = load ptr, ptr %55, align 8, !tbaa !136
  %57 = call i64 @ftello64(ptr noundef %56)
  store i64 %57, ptr %6, align 8, !tbaa !26
  %58 = load ptr, ptr %4, align 8, !tbaa !3
  %59 = load ptr, ptr %7, align 8, !tbaa !221
  %60 = call i32 @tng_block_header_read(ptr noundef %58, ptr noundef %59)
  store i32 %60, ptr %8, align 4, !tbaa !20
  br label %61

61:                                               ; preds = %104, %49
  %62 = load i64, ptr %6, align 8, !tbaa !26
  %63 = load ptr, ptr %4, align 8, !tbaa !3
  %64 = getelementptr inbounds nuw %struct.tng_trajectory, ptr %63, i32 0, i32 2
  %65 = load i64, ptr %64, align 8, !tbaa !137
  %66 = icmp slt i64 %62, %65
  br i1 %66, label %67, label %80

67:                                               ; preds = %61
  %68 = load i32, ptr %8, align 4, !tbaa !20
  %69 = icmp ne i32 %68, 2
  br i1 %69, label %70, label %80

70:                                               ; preds = %67
  %71 = load ptr, ptr %7, align 8, !tbaa !221
  %72 = getelementptr inbounds nuw %struct.tng_gen_block, ptr %71, i32 0, i32 2
  %73 = load i64, ptr %72, align 8, !tbaa !230
  %74 = icmp ne i64 %73, 2
  br i1 %74, label %75, label %80

75:                                               ; preds = %70
  %76 = load ptr, ptr %7, align 8, !tbaa !221
  %77 = getelementptr inbounds nuw %struct.tng_gen_block, ptr %76, i32 0, i32 2
  %78 = load i64, ptr %77, align 8, !tbaa !230
  %79 = icmp ne i64 %78, -1
  br label %80

80:                                               ; preds = %75, %70, %67, %61
  %81 = phi i1 [ false, %70 ], [ false, %67 ], [ false, %61 ], [ %79, %75 ]
  br i1 %81, label %82, label %105

82:                                               ; preds = %80
  %83 = load ptr, ptr %4, align 8, !tbaa !3
  %84 = load ptr, ptr %7, align 8, !tbaa !221
  %85 = load i8, ptr %5, align 1, !tbaa !23
  %86 = call i32 @tng_block_read_next(ptr noundef %83, ptr noundef %84, i8 noundef signext %85)
  store i32 %86, ptr %8, align 4, !tbaa !20
  %87 = load i32, ptr %8, align 4, !tbaa !20
  %88 = icmp ne i32 %87, 2
  br i1 %88, label %89, label %104

89:                                               ; preds = %82
  %90 = load ptr, ptr %4, align 8, !tbaa !3
  %91 = getelementptr inbounds nuw %struct.tng_trajectory, ptr %90, i32 0, i32 1
  %92 = load ptr, ptr %91, align 8, !tbaa !136
  %93 = call i64 @ftello64(ptr noundef %92)
  store i64 %93, ptr %6, align 8, !tbaa !26
  %94 = load i64, ptr %6, align 8, !tbaa !26
  %95 = load ptr, ptr %4, align 8, !tbaa !3
  %96 = getelementptr inbounds nuw %struct.tng_trajectory, ptr %95, i32 0, i32 2
  %97 = load i64, ptr %96, align 8, !tbaa !137
  %98 = icmp slt i64 %94, %97
  br i1 %98, label %99, label %103

99:                                               ; preds = %89
  %100 = load ptr, ptr %4, align 8, !tbaa !3
  %101 = load ptr, ptr %7, align 8, !tbaa !221
  %102 = call i32 @tng_block_header_read(ptr noundef %100, ptr noundef %101)
  store i32 %102, ptr %8, align 4, !tbaa !20
  br label %103

103:                                              ; preds = %99, %89
  br label %104

104:                                              ; preds = %103, %82
  br label %61, !llvm.loop !320

105:                                              ; preds = %80
  %106 = load i32, ptr %8, align 4, !tbaa !20
  %107 = icmp eq i32 %106, 2
  br i1 %107, label %108, label %114

108:                                              ; preds = %105
  %109 = load ptr, ptr @stderr, align 8, !tbaa !24
  %110 = load i64, ptr %6, align 8, !tbaa !26
  %111 = call i32 (ptr, ptr, ...) @fprintf(ptr noundef %109, ptr noundef @.str.14, i64 noundef %110, ptr noundef @.str.1, i32 noundef 11167) #11
  %112 = call i32 @tng_block_destroy(ptr noundef %7)
  %113 = load i32, ptr %8, align 4, !tbaa !20
  store i32 %113, ptr %3, align 4
  store i32 1, ptr %9, align 4
  br label %128

114:                                              ; preds = %105
  %115 = load ptr, ptr %7, align 8, !tbaa !221
  %116 = getelementptr inbounds nuw %struct.tng_gen_block, ptr %115, i32 0, i32 2
  %117 = load i64, ptr %116, align 8, !tbaa !230
  %118 = icmp eq i64 %117, 2
  br i1 %118, label %119, label %125

119:                                              ; preds = %114
  %120 = load ptr, ptr %4, align 8, !tbaa !3
  %121 = getelementptr inbounds nuw %struct.tng_trajectory, ptr %120, i32 0, i32 1
  %122 = load ptr, ptr %121, align 8, !tbaa !136
  %123 = load i64, ptr %6, align 8, !tbaa !26
  %124 = call i32 @fseeko64(ptr noundef %122, i64 noundef %123, i32 noundef 0)
  br label %125

125:                                              ; preds = %119, %114
  br label %126

126:                                              ; preds = %125, %40
  %127 = call i32 @tng_block_destroy(ptr noundef %7)
  store i32 0, ptr %3, align 4
  store i32 1, ptr %9, align 4
  br label %128

128:                                              ; preds = %126, %108, %35, %13
  call void @llvm.lifetime.end.p0(i64 4, ptr %8) #11
  call void @llvm.lifetime.end.p0(i64 8, ptr %7) #11
  call void @llvm.lifetime.end.p0(i64 8, ptr %6) #11
  %129 = load i32, ptr %3, align 4
  ret i32 %129
}