; Function Attrs: nounwind uwtable
define range(i32 0, 3) i32 @tng_frame_set_read(ptr noundef %0, i8 noundef signext %1) local_unnamed_addr #4 {
  %3 = alloca ptr, align 8
  call void @llvm.lifetime.start.p0(i64 8, ptr nonnull %3) #26
  %4 = tail call fastcc i32 @tng_input_file_init(ptr noundef %0)
  %.not = icmp eq i32 %4, 0
  br i1 %.not, label %5, label %tng_block_destroy.exit

5:                                                ; preds = %2
  %6 = getelementptr inbounds nuw i8, ptr %0, i64 8
  %7 = load ptr, ptr %6, align 8, !tbaa !137
  %8 = tail call i64 @ftello64(ptr noundef %7)
  %9 = tail call noalias dereferenceable_or_null(120) ptr @malloc(i64 noundef 120) #28
  store ptr %9, ptr %3, align 8, !tbaa !210
  %.not.i = icmp eq ptr %9, null
  br i1 %.not.i, label %10, label %13

10:                                               ; preds = %5
  %11 = load ptr, ptr @stderr, align 8, !tbaa !14
  %12 = tail call i32 (ptr, ptr, ...) @fprintf(ptr noundef %11, ptr noundef nonnull @.str, ptr noundef nonnull @.str.1, i32 noundef 940) #29
  br label %tng_block_init.exit

13:                                               ; preds = %5
  %14 = getelementptr inbounds nuw i8, ptr %9, i64 16
  store i64 -1, ptr %14, align 8, !tbaa !183
  %15 = getelementptr inbounds nuw i8, ptr %9, i64 24
  %16 = getelementptr inbounds nuw i8, ptr %9, i64 48
  tail call void @llvm.memset.p0.i64(ptr noundef nonnull align 8 dereferenceable(24) %15, i8 0, i64 24, i1 false)
  store i64 8, ptr %16, align 8, !tbaa !185
  %17 = getelementptr inbounds nuw i8, ptr %9, i64 104
  tail call void @llvm.memset.p0.i64(ptr noundef nonnull align 8 dereferenceable(16) %9, i8 0, i64 16, i1 false)
  tail call void @llvm.memset.p0.i64(ptr noundef nonnull align 8 dereferenceable(16) %17, i8 0, i64 16, i1 false)
  br label %tng_block_init.exit

tng_block_init.exit:                              ; preds = %10, %13
  %18 = tail call fastcc i32 @tng_block_header_read(ptr noundef nonnull %0, ptr noundef %9)
  %19 = icmp eq i32 %18, 2
  br i1 %19, label %25, label %20

20:                                               ; preds = %tng_block_init.exit
  %21 = getelementptr inbounds nuw i8, ptr %9, i64 16
  %22 = load i64, ptr %21, align 8, !tbaa !183
  %.not36 = icmp eq i64 %22, 2
  br i1 %.not36, label %41, label %.thread

.thread:                                          ; preds = %20
  %23 = load ptr, ptr @stderr, align 8, !tbaa !14
  %24 = tail call i32 (ptr, ptr, ...) @fprintf(ptr noundef %23, ptr noundef nonnull @.str.14, i64 noundef %8, ptr noundef nonnull @.str.1, i32 noundef 11138) #29
  br label %28

25:                                               ; preds = %tng_block_init.exit
  %26 = load ptr, ptr @stderr, align 8, !tbaa !14
  %27 = tail call i32 (ptr, ptr, ...) @fprintf(ptr noundef %26, ptr noundef nonnull @.str.14, i64 noundef %8, ptr noundef nonnull @.str.1, i32 noundef 11138) #29
  br i1 %.not.i, label %tng_block_destroy.exit, label %28

28:                                               ; preds = %.thread, %25
  %29 = getelementptr inbounds nuw i8, ptr %9, i64 40
  %30 = load ptr, ptr %29, align 8, !tbaa !187
  %.not16.i = icmp eq ptr %30, null
  br i1 %.not16.i, label %32, label %31

31:                                               ; preds = %28
  tail call void @free(ptr noundef nonnull %30) #26
  store ptr null, ptr %29, align 8, !tbaa !187
  br label %32

32:                                               ; preds = %31, %28
  %33 = getelementptr inbounds nuw i8, ptr %9, i64 104
  %34 = load ptr, ptr %33, align 8, !tbaa !188
  %.not17.i = icmp eq ptr %34, null
  br i1 %.not17.i, label %36, label %35

35:                                               ; preds = %32
  tail call void @free(ptr noundef nonnull %34) #26
  store ptr null, ptr %33, align 8, !tbaa !188
  br label %36

36:                                               ; preds = %35, %32
  %37 = getelementptr inbounds nuw i8, ptr %9, i64 112
  %38 = load ptr, ptr %37, align 8, !tbaa !189
  %.not18.i = icmp eq ptr %38, null
  br i1 %.not18.i, label %40, label %39

39:                                               ; preds = %36
  tail call void @free(ptr noundef nonnull %38) #26
  br label %40

40:                                               ; preds = %39, %36
  tail call void @free(ptr noundef nonnull %9) #26
  br label %tng_block_destroy.exit

41:                                               ; preds = %20
  %42 = getelementptr inbounds nuw i8, ptr %0, i64 424
  store i64 %8, ptr %42, align 8, !tbaa !194
  %43 = tail call i32 @tng_block_read_next(ptr noundef nonnull %0, ptr noundef nonnull %9, i8 noundef signext %1)
  %44 = icmp eq i32 %43, 0
  br i1 %44, label %45, label %78

45:                                               ; preds = %41
  %46 = getelementptr inbounds nuw i8, ptr %0, i64 440
  %47 = load i64, ptr %46, align 8, !tbaa !119
  %48 = add nsw i64 %47, 1
  store i64 %48, ptr %46, align 8, !tbaa !119
  %49 = load ptr, ptr %6, align 8, !tbaa !137
  %50 = tail call i64 @ftello64(ptr noundef %49)
  %51 = tail call fastcc i32 @tng_block_header_read(ptr noundef nonnull %0, ptr noundef nonnull %9)
  %52 = getelementptr inbounds nuw i8, ptr %0, i64 16
  %53 = load i64, ptr %52, align 8, !tbaa !191
  %54 = icmp slt i64 %50, %53
  %55 = icmp ne i32 %51, 2
  %or.cond49 = select i1 %54, i1 %55, i1 false
  br i1 %or.cond49, label %.lr.ph, label %.critedge

.lr.ph:                                           ; preds = %45, %66
  %.02850 = phi i64 [ %61, %66 ], [ %50, %45 ]
  %56 = load i64, ptr %21, align 8, !tbaa !183
  switch i64 %56, label %57 [
    i64 2, label %.critedge.thread
    i64 -1, label %.critedge.thread
  ]

57:                                               ; preds = %.lr.ph
  %58 = tail call i32 @tng_block_read_next(ptr noundef nonnull %0, ptr noundef nonnull %9, i8 noundef signext %1)
  %.not39 = icmp eq i32 %58, 2
  br i1 %.not39, label %.critedge.thread60, label %59

59:                                               ; preds = %57
  %60 = load ptr, ptr %6, align 8, !tbaa !137
  %61 = tail call i64 @ftello64(ptr noundef %60)
  %62 = load i64, ptr %52, align 8, !tbaa !191
  %63 = icmp slt i64 %61, %62
  br i1 %63, label %64, label %66

64:                                               ; preds = %59
  %65 = tail call fastcc i32 @tng_block_header_read(ptr noundef nonnull %0, ptr noundef nonnull %9)
  br label %66

66:                                               ; preds = %59, %64
  %.1 = phi i32 [ %65, %64 ], [ %58, %59 ]
  %67 = load i64, ptr %52, align 8, !tbaa !191
  %68 = icmp slt i64 %61, %67
  %69 = icmp ne i32 %.1, 2
  %or.cond = select i1 %68, i1 %69, i1 false
  br i1 %or.cond, label %.lr.ph, label %.critedge, !llvm.loop !315

.critedge:                                        ; preds = %66, %45
  %.028.lcssa = phi i64 [ %50, %45 ], [ %61, %66 ]
  %.0.lcssa = phi i32 [ %51, %45 ], [ %.1, %66 ]
  %70 = icmp eq i32 %.0.lcssa, 2
  br i1 %70, label %.critedge.thread60, label %.critedge.threadthread-pre-split

.critedge.thread60:                               ; preds = %57, %.critedge
  %.028.lcssa63 = phi i64 [ %.028.lcssa, %.critedge ], [ %.02850, %57 ]
  %71 = load ptr, ptr @stderr, align 8, !tbaa !14
  %72 = tail call i32 (ptr, ptr, ...) @fprintf(ptr noundef %71, ptr noundef nonnull @.str.14, i64 noundef %.028.lcssa63, ptr noundef nonnull @.str.1, i32 noundef 11167) #29
  call fastcc void @tng_block_destroy(ptr noundef %3)
  br label %tng_block_destroy.exit

.critedge.threadthread-pre-split:                 ; preds = %.critedge
  %.pr = load i64, ptr %21, align 8, !tbaa !183
  br label %.critedge.thread

.critedge.thread:                                 ; preds = %.lr.ph, %.lr.ph, %.critedge.threadthread-pre-split
  %.02848 = phi i64 [ %.028.lcssa, %.critedge.threadthread-pre-split ], [ %.02850, %.lr.ph ], [ %.02850, %.lr.ph ]
  %73 = phi i64 [ %.pr, %.critedge.threadthread-pre-split ], [ %56, %.lr.ph ], [ %56, %.lr.ph ]
  %74 = icmp eq i64 %73, 2
  br i1 %74, label %75, label %78

75:                                               ; preds = %.critedge.thread
  %76 = load ptr, ptr %6, align 8, !tbaa !137
  %77 = tail call i32 @fseeko64(ptr noundef %76, i64 noundef %.02848, i32 noundef 0)
  br label %78

78:                                               ; preds = %41, %75, %.critedge.thread
  %79 = getelementptr inbounds nuw i8, ptr %9, i64 40
  %80 = load ptr, ptr %79, align 8, !tbaa !187
  %.not16.i42 = icmp eq ptr %80, null
  br i1 %.not16.i42, label %82, label %81

81:                                               ; preds = %78
  tail call void @free(ptr noundef nonnull %80) #26
  store ptr null, ptr %79, align 8, !tbaa !187
  br label %82

82:                                               ; preds = %81, %78
  %83 = getelementptr inbounds nuw i8, ptr %9, i64 104
  %84 = load ptr, ptr %83, align 8, !tbaa !188
  %.not17.i43 = icmp eq ptr %84, null
  br i1 %.not17.i43, label %86, label %85

85:                                               ; preds = %82
  tail call void @free(ptr noundef nonnull %84) #26
  store ptr null, ptr %83, align 8, !tbaa !188
  br label %86

86:                                               ; preds = %85, %82
  %87 = getelementptr inbounds nuw i8, ptr %9, i64 112
  %88 = load ptr, ptr %87, align 8, !tbaa !189
  %.not18.i44 = icmp eq ptr %88, null
  br i1 %.not18.i44, label %tng_block_destroy.exit45, label %89

89:                                               ; preds = %86
  tail call void @free(ptr noundef nonnull %88) #26
  br label %tng_block_destroy.exit45

tng_block_destroy.exit45:                         ; preds = %86, %89
  tail call void @free(ptr noundef nonnull %9) #26
  br label %tng_block_destroy.exit

tng_block_destroy.exit:                           ; preds = %40, %25, %2, %tng_block_destroy.exit45, %.critedge.thread60
  %.030 = phi i32 [ 2, %.critedge.thread60 ], [ 0, %tng_block_destroy.exit45 ], [ 2, %2 ], [ 2, %25 ], [ 2, %40 ]
  call void @llvm.lifetime.end.p0(i64 8, ptr nonnull %3) #26
  ret i32 %.030
}